target datalayout = "e-m:e-p270:32:32-p271:32:32-p272:64:64-i64:64-i128:128-f80:128-n8:16:32:64-S128"
target triple = "x86_64-pc-linux-gnu"

@.str.1 = private unnamed_addr constant [7 x i8] c"%lu us\00", align 1
@.str.2 = private unnamed_addr constant [9 x i8] c"%.3lf ms\00", align 1
@.str.3 = private unnamed_addr constant [10 x i8] c"%.3lf sec\00", align 1
@.str.4 = private unnamed_addr constant [17 x i8] c"%02lu:%05.3f M:S\00", align 1
@.str.5 = private unnamed_addr constant [25 x i8] c"%02lu:%02lu:%05.3f H:M:S\00", align 1

; Function Attrs: mustprogress nounwind uwtable
define noundef i32 @_ZN7rocksdb17AppendHumanMicrosEmPcib(i64 noundef %0, ptr noundef %1, i32 noundef %2, i1 noundef zeroext %3) #2 {
  %5 = alloca i32, align 4
  %6 = alloca i64, align 8
  %7 = alloca ptr, align 8
  %8 = alloca i32, align 4
  %9 = alloca i8, align 1
  store i64 %0, ptr %6, align 8, !tbaa !32
  store ptr %1, ptr %7, align 8, !tbaa !11
  store i32 %2, ptr %8, align 4, !tbaa !34
  %10 = zext i1 %3 to i8
  store i8 %10, ptr %9, align 1, !tbaa !36
  %11 = load i64, ptr %6, align 8, !tbaa !32
  %12 = icmp ult i64 %11, 10000
  br i1 %12, label %13, label %22

13:                                               ; preds = %4
  %14 = load i8, ptr %9, align 1, !tbaa !36, !range !38, !noundef !39
  %15 = trunc i8 %14 to i1
  br i1 %15, label %22, label %16

16:                                               ; preds = %13
  %17 = load ptr, ptr %7, align 8, !tbaa !11
  %18 = load i32, ptr %8, align 4, !tbaa !34
  %19 = sext i32 %18 to i64
  %20 = load i64, ptr %6, align 8, !tbaa !32
  %21 = call i32 (ptr, i64, ptr, ...) @snprintf(ptr noundef %17, i64 noundef %19, ptr noundef @.str.1, i64 noundef %20) #4
  store i32 %21, ptr %5, align 4
  br label %84

22:                                               ; preds = %13, %4
  %23 = load i64, ptr %6, align 8, !tbaa !32
  %24 = icmp ult i64 %23, 10000000
  br i1 %24, label %25, label %36

25:                                               ; preds = %22
  %26 = load i8, ptr %9, align 1, !tbaa !36, !range !38, !noundef !39
  %27 = trunc i8 %26 to i1
  br i1 %27, label %36, label %28

28:                                               ; preds = %25
  %29 = load ptr, ptr %7, align 8, !tbaa !11
  %30 = load i32, ptr %8, align 4, !tbaa !34
  %31 = sext i32 %30 to i64
  %32 = load i64, ptr %6, align 8, !tbaa !32
  %33 = uitofp i64 %32 to double
  %34 = fdiv double %33, 1.000000e+03
  %35 = call i32 (ptr, i64, ptr, ...) @snprintf(ptr noundef %29, i64 noundef %31, ptr noundef @.str.2, double noundef %34) #4
  store i32 %35, ptr %5, align 4
  br label %84

36:                                               ; preds = %25, %22
  %37 = load i64, ptr %6, align 8, !tbaa !32
  %38 = icmp ult i64 %37, 60000000
  br i1 %38, label %39, label %50

39:                                               ; preds = %36
  %40 = load i8, ptr %9, align 1, !tbaa !36, !range !38, !noundef !39
  %41 = trunc i8 %40 to i1
  br i1 %41, label %50, label %42

42:                                               ; preds = %39
  %43 = load ptr, ptr %7, align 8, !tbaa !11
  %44 = load i32, ptr %8, align 4, !tbaa !34
  %45 = sext i32 %44 to i64
  %46 = load i64, ptr %6, align 8, !tbaa !32
  %47 = uitofp i64 %46 to double
  %48 = fdiv double %47, 1.000000e+06
  %49 = call i32 (ptr, i64, ptr, ...) @snprintf(ptr noundef %43, i64 noundef %45, ptr noundef @.str.3, double noundef %48) #4
  store i32 %49, ptr %5, align 4
  br label %84

50:                                               ; preds = %39, %36
  %51 = load i64, ptr %6, align 8, !tbaa !32
  %52 = icmp ult i64 %51, 3600000000
  br i1 %52, label %53, label %68

53:                                               ; preds = %50
  %54 = load i8, ptr %9, align 1, !tbaa !36, !range !38, !noundef !39
  %55 = trunc i8 %54 to i1
  br i1 %55, label %68, label %56

56:                                               ; preds = %53
  %57 = load ptr, ptr %7, align 8, !tbaa !11
  %58 = load i32, ptr %8, align 4, !tbaa !34
  %59 = sext i32 %58 to i64
  %60 = load i64, ptr %6, align 8, !tbaa !32
  %61 = udiv i64 %60, 1000000
  %62 = udiv i64 %61, 60
  %63 = load i64, ptr %6, align 8, !tbaa !32
  %64 = urem i64 %63, 60000000
  %65 = uitofp i64 %64 to double
  %66 = fdiv double %65, 1.000000e+06
  %67 = call i32 (ptr, i64, ptr, ...) @snprintf(ptr noundef %57, i64 noundef %59, ptr noundef @.str.4, i64 noundef %62, double noundef %66) #4
  store i32 %67, ptr %5, align 4
  br label %84

68:                                               ; preds = %53, %50
  %69 = load ptr, ptr %7, align 8, !tbaa !11
  %70 = load i32, ptr %8, align 4, !tbaa !34
  %71 = sext i32 %70 to i64
  %72 = load i64, ptr %6, align 8, !tbaa !32
  %73 = udiv i64 %72, 1000000
  %74 = udiv i64 %73, 3600
  %75 = load i64, ptr %6, align 8, !tbaa !32
  %76 = udiv i64 %75, 1000000
  %77 = udiv i64 %76, 60
  %78 = urem i64 %77, 60
  %79 = load i64, ptr %6, align 8, !tbaa !32
  %80 = urem i64 %79, 60000000
  %81 = uitofp i64 %80 to double
  %82 = fdiv double %81, 1.000000e+06
  %83 = call i32 (ptr, i64, ptr, ...) @snprintf(ptr noundef %69, i64 noundef %71, ptr noundef @.str.5, i64 noundef %74, i64 noundef %78, double noundef %82) #4
  store i32 %83, ptr %5, align 4
  br label %84

84:                                               ; preds = %68, %56, %42, %28, %16
  %85 = load i32, ptr %5, align 4
  ret i32 %85
}