; Function Attrs: mustprogress nofree nounwind uwtable
define noundef i32 @_ZN7rocksdb17AppendHumanMicrosEmPcib(i64 noundef %0, ptr noundef writeonly captures(none) %1, i32 noundef %2, i1 noundef zeroext %3) local_unnamed_addr #5 {
  %5 = icmp ugt i64 %0, 9999
  %brmerge = or i1 %5, %3
  br i1 %brmerge, label %9, label %6

6:                                                ; preds = %4
  %7 = sext i32 %2 to i64
  %8 = tail call i32 (ptr, i64, ptr, ...) @snprintf(ptr noundef %1, i64 noundef %7, ptr noundef nonnull @.str.1, i64 noundef %0) #26
  br label %40

9:                                                ; preds = %4
  %10 = icmp ugt i64 %0, 9999999
  %brmerge28 = or i1 %10, %3
  br i1 %brmerge28, label %16, label %11

11:                                               ; preds = %9
  %12 = sext i32 %2 to i64
  %13 = uitofp nneg i64 %0 to double
  %14 = fdiv double %13, 1.000000e+03
  %15 = tail call i32 (ptr, i64, ptr, ...) @snprintf(ptr noundef %1, i64 noundef %12, ptr noundef nonnull @.str.2, double noundef %14) #26
  br label %40

16:                                               ; preds = %9
  %17 = icmp ugt i64 %0, 59999999
  %brmerge30 = or i1 %17, %3
  br i1 %brmerge30, label %23, label %18

18:                                               ; preds = %16
  %19 = sext i32 %2 to i64
  %20 = uitofp nneg i64 %0 to double
  %21 = fdiv double %20, 1.000000e+06
  %22 = tail call i32 (ptr, i64, ptr, ...) @snprintf(ptr noundef %1, i64 noundef %19, ptr noundef nonnull @.str.3, double noundef %21) #26
  br label %40

23:                                               ; preds = %16
  %24 = icmp ugt i64 %0, 3599999999
  %brmerge32 = or i1 %24, %3
  %25 = sext i32 %2 to i64
  br i1 %brmerge32, label %32, label %26

26:                                               ; preds = %23
  %.lhs.trunc = trunc nuw i64 %0 to i32
  %27 = udiv i32 %.lhs.trunc, 60000000
  %.zext = zext nneg i32 %27 to i64
  %28 = urem i32 %.lhs.trunc, 60000000
  %29 = uitofp nneg i32 %28 to double
  %30 = fdiv double %29, 1.000000e+06
  %31 = tail call i32 (ptr, i64, ptr, ...) @snprintf(ptr noundef %1, i64 noundef %25, ptr noundef nonnull @.str.4, i64 noundef %.zext, double noundef %30) #26
  br label %40

32:                                               ; preds = %23
  %33 = udiv i64 %0, 3600000000
  %34 = udiv i64 %0, 60000000
  %35 = urem i64 %34, 60
  %36 = urem i64 %0, 60000000
  %37 = uitofp nneg i64 %36 to double
  %38 = fdiv double %37, 1.000000e+06
  %39 = tail call i32 (ptr, i64, ptr, ...) @snprintf(ptr noundef %1, i64 noundef %25, ptr noundef nonnull @.str.5, i64 noundef %33, i64 noundef %35, double noundef %38) #26
  br label %40

40:                                               ; preds = %32, %26, %18, %11, %6
  %.0 = phi i32 [ %39, %32 ], [ %31, %26 ], [ %22, %18 ], [ %15, %11 ], [ %8, %6 ]
  ret i32 %.0
}